(lp0
(lp1
(lp2
F142.51407407407407
aF141.88641975308644
aF255.61283950617283
aa(lp3
F82.51407407407407
aF81.88641975308643
aF195.61283950617283
aaa(lp4
(lp5
F227.8972839506173
aF223.63111111111112
aF218.7111111111111
aa(lp6
F167.8972839506173
aF163.63111111111112
aF158.7111111111111
aaa(lp7
(lp8
F139.57333333333332
aF203.281975308642
aF67.28740740740741
aa(lp9
F79.57333333333334
aF143.281975308642
aF7.287407407407407
aaa(lp10
(lp11
F81.6162962962963
aF63.641481481481485
aF176.09876543209876
aa(lp12
F21.616296296296298
aF3.6414814814814846
aF116.09876543209876
aaa(lp13
(lp14
F144.22024691358024
aF225.441975308642
aF204.41481481481483
aa(lp15
F84.22024691358025
aF165.441975308642
aF144.41481481481483
aaa(lp16
(lp17
F194.40444444444444
aF112.71604938271605
aF51.18024691358025
aa(lp18
F134.40444444444444
aF52.71604938271605
aF-8.819753086419752
aaa.